(dp0
S'Indicator'
p1
(lp2
(S'str'
p3
S'100%'
p4
tp5
asS'Area'
p6
(lp7
(S'iso3'
p8
S'67%'
p9
tp10
a(g3
S'33%'
p11
tp12
asS'Source'
p13
(lp14
(g3
S'100%'
p15
tp16
asS'Area ID'
p17
(lp18
(g8
S'100%'
p19
tp20
asS'Data Value'
p21
(lp22
(S'numeric'
p23
S'100%'
p24
tp25
asS'Footnotes'
p26
(lp27
(g3
S'68%'
p28
tp29
a(g23
S'32%'
p30
tp31
asS'Time Period'
p32
(lp33
(S'date'
p34
S'100%'
p35
tp36
asS'Unit'
p37
(lp38
(g3
S'100%'
p39
tp40
asS'Subgroup'
p41
(lp42
(g3
S'100%'
p43
tp44
as.