(dp0
S'1990'
p1
(lp2
(S'numeric'
p3
S'75%'
p4
tp5
a(S'str'
p6
S'25%'
p7
tp8
asS'2016'
p9
(lp10
(g6
S'97%'
p11
tp12
a(g3
S'3%'
p13
tp14
asS'Series Name'
p15
(lp16
(g6
S'100%'
p17
tp18
asS'Series Code'
p19
(lp20
(g6
S'100%'
p21
tp22
asS'Country Code'
p23
(lp24
(S'iso3'
p25
S'100%'
p26
tp27
asS'Source'
p28
(lp29
(g6
S'100%'
p30
tp31
asS'2000'
p32
(lp33
(g3
S'83%'
p34
tp35
a(g6
S'17%'
p36
tp37
asS'Country Name'
p38
(lp39
(S'country name'
p40
S'100%'
p41
tp42
asS'2007'
p43
(lp44
(g3
S'86%'
p45
tp46
a(g6
S'14%'
p47
tp48
asS'2015'
p49
(lp50
(g3
S'63%'
p51
tp52
a(g6
S'37%'
p53
tp54
asS'2014'
p55
(lp56
(g3
S'80%'
p57
tp58
a(g6
S'20%'
p59
tp60
asS'2008'
p61
(lp62
(g3
S'83%'
p63
tp64
a(g6
S'17%'
p65
tp66
asS'2009'
p67
(lp68
(g3
S'88%'
p69
tp70
a(g6
S'12%'
p71
tp72
asS'2011'
p73
(lp74
(g3
S'76%'
p75
tp76
a(g6
S'24%'
p77
tp78
asS'2010'
p79
(lp80
(g3
S'78%'
p81
tp82
a(g6
S'22%'
p83
tp84
asS'2013'
p85
(lp86
(g3
S'78%'
p87
tp88
a(g6
S'22%'
p89
tp90
asS'2012'
p91
(lp92
(g3
S'85%'
p93
tp94
a(g6
S'15%'
p95
tp96
as.