(dp0
S'Series Name'
p1
(lp2
(S'str'
p3
S'100%'
p4
tp5
asS'Series Code'
p6
(lp7
(g3
S'100%'
p8
tp9
asS'1960'
p10
(lp11
(g3
S'100%'
p12
tp13
asS'Country Code'
p14
(lp15
(S'iso3'
p16
S'100%'
p17
tp18
asS'1962'
p19
(lp20
(S'numeric'
p21
S'72%'
p22
tp23
a(g3
S'28%'
p24
tp25
asS'1961'
p26
(lp27
(g21
S'69%'
p28
tp29
a(g3
S'31%'
p30
tp31
asS'Country Name'
p32
(lp33
(S'country_name'
p34
S'92%'
p35
tp36
a(g3
S'8%'
p37
tp38
as.