(dp0
S'Total Population'
p1
(lp2
(S'numeric'
p3
S'100%'
p4
tp5
asS'Age Group'
p6
(lp7
(S'str'
p8
S'100%'
p9
tp10
asS'Males'
p11
(lp12
(g3
S'100%'
p13
tp14
asS'Females'
p15
(lp16
(g3
S'100%'
p17
tp18
asS'Test'
p19
(lp20
(g8
S'100%'
p21
tp22
as.