(dp0
S'Indicator'
p1
(lp2
(S'str'
p3
S'100%'
p4
tp5
asS'Area'
p6
(lp7
(S'country_name'
p8
S'94%'
p9
tp10
a(g3
S'6%'
p11
tp12
asS'Source'
p13
(lp14
(g3
S'100%'
p15
tp16
asS'Area ID'
p17
(lp18
(S'iso3'
p19
S'100%'
p20
tp21
asS'Data Value'
p22
(lp23
(S'numeric'
p24
S'100%'
p25
tp26
asS'Footnotes'
p27
(lp28
(g3
S'62%'
p29
tp30
a(g24
S'38%'
p31
tp32
asS'Time Period'
p33
(lp34
(S'date'
p35
S'100%'
p36
tp37
asS'Unit'
p38
(lp39
(g3
S'100%'
p40
tp41
asS'Subgroup'
p42
(lp43
(g3
S'100%'
p44
tp45
as.