(dp0
S'1990'
p1
(lp2
(S'numeric'
p3
S'77%'
p4
tp5
a(S'str'
p6
S'23%'
p7
tp8
asS'2016'
p9
(lp10
(g6
S'89%'
p11
tp12
a(g3
S'11%'
p13
tp14
asS'Series Name'
p15
(lp16
(g6
S'92%'
p17
tp18
a(g3
S'8%'
p19
tp20
asS'Series Code'
p21
(lp22
(g6
S'92%'
p23
tp24
a(g3
S'8%'
p25
tp26
asS'Country Code'
p27
(lp28
(S'iso3'
p29
S'92%'
p30
tp31
a(g3
S'8%'
p32
tp33
asS'Source'
p34
(lp35
(g6
S'92%'
p36
tp37
a(g3
S'8%'
p38
tp39
asS'2000'
p40
(lp41
(g3
S'84%'
p42
tp43
a(g6
S'16%'
p44
tp45
asS'Country Name'
p46
(lp47
(S'country name'
p48
S'92%'
p49
tp50
a(g3
S'5%'
p51
tp52
a(g6
S'3%'
p53
tp54
asS'2007'
p55
(lp56
(g3
S'88%'
p57
tp58
a(g6
S'12%'
p59
tp60
asS'2015'
p61
(lp62
(g3
S'66%'
p63
tp64
a(g6
S'34%'
p65
tp66
asS'2014'
p67
(lp68
(g3
S'81%'
p69
tp70
a(g6
S'19%'
p71
tp72
asS'2008'
p73
(lp74
(g3
S'84%'
p75
tp76
a(g6
S'16%'
p77
tp78
asS'2009'
p79
(lp80
(g3
S'89%'
p81
tp82
a(g6
S'11%'
p83
tp84
asS'2011'
p85
(lp86
(g3
S'78%'
p87
tp88
a(g6
S'22%'
p89
tp90
asS'2010'
p91
(lp92
(g3
S'80%'
p93
tp94
a(g6
S'20%'
p95
tp96
asS'2013'
p97
(lp98
(g3
S'80%'
p99
tp100
a(g6
S'20%'
p101
tp102
asS'2012'
p103
(lp104
(g3
S'86%'
p105
tp106
a(g6
S'14%'
p107
tp108
as.