(dp0
S'Indicator'
p1
(lp2
(S'str'
p3
S'100%'
p4
tp5
asS'Area'
p6
(lp7
(g3
S'100%'
p8
tp9
asS'Source'
p10
(lp11
(g3
S'100%'
p12
tp13
asS'Area ID'
p14
(lp15
(S'iso3'
p16
S'100%'
p17
tp18
asS'Data Value'
p19
(lp20
(S'numeric'
p21
S'100%'
p22
tp23
asS'Footnotes'
p24
(lp25
(g3
S'62%'
p26
tp27
a(g21
S'38%'
p28
tp29
asS'Time Period'
p30
(lp31
(S'date'
p32
S'100%'
p33
tp34
asS'Unit'
p35
(lp36
(g3
S'100%'
p37
tp38
asS'Subgroup'
p39
(lp40
(g3
S'100%'
p41
tp42
as.