(dp0
S'Count'
p1
(lp2
(S'numeric'
p3
S'100%'
p4
tp5
asS'Source'
p6
(lp7
(S'str'
p8
S'100%'
p9
tp10
asS'Rate'
p11
(lp12
(g3
S'100%'
p13
tp14
asS'Source Type'
p15
(lp16
(g8
S'93%'
p17
tp18
a(S'iso2'
p19
S'7%'
p20
tp21
asS'Year'
p22
(lp23
(S'date'
p24
S'100%'
p25
tp26
asS'Country or Area'
p27
(lp28
(S'country_name'
p29
S'95%'
p30
tp31
a(g8
S'5%'
p32
tp33
as.